target datalayout = "e-m:e-p270:32:32-p271:32:32-p272:64:64-i64:64-i128:128-f80:128-n8:16:32:64-S128"
target triple = "x86_64-pc-linux-gnu"

%struct.stbi__huffman = type { [512 x i8], [256 x i16], [256 x i8], [257 x i8], [18 x i32], [17 x i32] }

@.str.2 = private unnamed_addr constant [3 x i8] c"%s\00", align 1
@.str.6 = private unnamed_addr constant [13 x i8] c"Corrupt JPEG\00", align 1

; Function Attrs: nounwind uwtable
define internal i32 @stbi__err(ptr noundef %0) #0 {
  %2 = alloca ptr, align 8
  store ptr %0, ptr %2, align 8
  %3 = load ptr, ptr %2, align 8
  %4 = call zeroext i1 (ptr, ...) @SDL_SetError_REAL(ptr noundef @.str.2, ptr noundef %3)
  ret i32 0
}

; Function Attrs: nounwind uwtable
define internal i32 @stbi__build_huffman(ptr noundef %0, ptr noundef %1) #0 {
  %3 = alloca i32, align 4
  %4 = alloca ptr, align 8
  %5 = alloca ptr, align 8
  %6 = alloca i32, align 4
  %7 = alloca i32, align 4
  %8 = alloca i32, align 4
  %9 = alloca i32, align 4
  %10 = alloca i32, align 4
  %11 = alloca i32, align 4
  %12 = alloca i32, align 4
  %13 = alloca i32, align 4
  store ptr %0, ptr %4, align 8
  store ptr %1, ptr %5, align 8
  call void @llvm.lifetime.start.p0(i64 4, ptr %6) #8
  call void @llvm.lifetime.start.p0(i64 4, ptr %7) #8
  call void @llvm.lifetime.start.p0(i64 4, ptr %8) #8
  store i32 0, ptr %8, align 4
  call void @llvm.lifetime.start.p0(i64 4, ptr %9) #8
  store i32 0, ptr %6, align 4
  br label %14

14:                                               ; preds = %45, %2
  %15 = load i32, ptr %6, align 4
  %16 = icmp slt i32 %15, 16
  br i1 %16, label %17, label %48

17:                                               ; preds = %14
  store i32 0, ptr %7, align 4
  br label %18

18:                                               ; preds = %41, %17
  %19 = load i32, ptr %7, align 4
  %20 = load ptr, ptr %5, align 8
  %21 = load i32, ptr %6, align 4
  %22 = sext i32 %21 to i64
  %23 = getelementptr inbounds i32, ptr %20, i64 %22
  %24 = load i32, ptr %23, align 4
  %25 = icmp slt i32 %19, %24
  br i1 %25, label %26, label %44

26:                                               ; preds = %18
  %27 = load i32, ptr %6, align 4
  %28 = add nsw i32 %27, 1
  %29 = trunc i32 %28 to i8
  %30 = load ptr, ptr %4, align 8
  %31 = getelementptr inbounds nuw %struct.stbi__huffman, ptr %30, i32 0, i32 3
  %32 = load i32, ptr %8, align 4
  %33 = add nsw i32 %32, 1
  store i32 %33, ptr %8, align 4
  %34 = sext i32 %32 to i64
  %35 = getelementptr inbounds [257 x i8], ptr %31, i64 0, i64 %34
  store i8 %29, ptr %35, align 1
  %36 = load i32, ptr %8, align 4
  %37 = icmp sge i32 %36, 257
  br i1 %37, label %38, label %40

38:                                               ; preds = %26
  %39 = call i32 @stbi__err(ptr noundef @.str.6)
  store i32 %39, ptr %3, align 4
  store i32 1, ptr %10, align 4
  br label %180

40:                                               ; preds = %26
  br label %41

41:                                               ; preds = %40
  %42 = load i32, ptr %7, align 4
  %43 = add nsw i32 %42, 1
  store i32 %43, ptr %7, align 4
  br label %18, !llvm.loop !81

44:                                               ; preds = %18
  br label %45

45:                                               ; preds = %44
  %46 = load i32, ptr %6, align 4
  %47 = add nsw i32 %46, 1
  store i32 %47, ptr %6, align 4
  br label %14, !llvm.loop !82

48:                                               ; preds = %14
  %49 = load ptr, ptr %4, align 8
  %50 = getelementptr inbounds nuw %struct.stbi__huffman, ptr %49, i32 0, i32 3
  %51 = load i32, ptr %8, align 4
  %52 = sext i32 %51 to i64
  %53 = getelementptr inbounds [257 x i8], ptr %50, i64 0, i64 %52
  store i8 0, ptr %53, align 1
  store i32 0, ptr %9, align 4
  store i32 0, ptr %8, align 4
  store i32 1, ptr %7, align 4
  br label %54

54:                                               ; preds = %117, %48
  %55 = load i32, ptr %7, align 4
  %56 = icmp sle i32 %55, 16
  br i1 %56, label %57, label %120

57:                                               ; preds = %54
  %58 = load i32, ptr %8, align 4
  %59 = load i32, ptr %9, align 4
  %60 = sub i32 %58, %59
  %61 = load ptr, ptr %4, align 8
  %62 = getelementptr inbounds nuw %struct.stbi__huffman, ptr %61, i32 0, i32 5
  %63 = load i32, ptr %7, align 4
  %64 = sext i32 %63 to i64
  %65 = getelementptr inbounds [17 x i32], ptr %62, i64 0, i64 %64
  store i32 %60, ptr %65, align 4
  %66 = load ptr, ptr %4, align 8
  %67 = getelementptr inbounds nuw %struct.stbi__huffman, ptr %66, i32 0, i32 3
  %68 = load i32, ptr %8, align 4
  %69 = sext i32 %68 to i64
  %70 = getelementptr inbounds [257 x i8], ptr %67, i64 0, i64 %69
  %71 = load i8, ptr %70, align 1
  %72 = zext i8 %71 to i32
  %73 = load i32, ptr %7, align 4
  %74 = icmp eq i32 %72, %73
  br i1 %74, label %75, label %105

75:                                               ; preds = %57
  br label %76

76:                                               ; preds = %86, %75
  %77 = load ptr, ptr %4, align 8
  %78 = getelementptr inbounds nuw %struct.stbi__huffman, ptr %77, i32 0, i32 3
  %79 = load i32, ptr %8, align 4
  %80 = sext i32 %79 to i64
  %81 = getelementptr inbounds [257 x i8], ptr %78, i64 0, i64 %80
  %82 = load i8, ptr %81, align 1
  %83 = zext i8 %82 to i32
  %84 = load i32, ptr %7, align 4
  %85 = icmp eq i32 %83, %84
  br i1 %85, label %86, label %96

86:                                               ; preds = %76
  %87 = load i32, ptr %9, align 4
  %88 = add i32 %87, 1
  store i32 %88, ptr %9, align 4
  %89 = trunc i32 %87 to i16
  %90 = load ptr, ptr %4, align 8
  %91 = getelementptr inbounds nuw %struct.stbi__huffman, ptr %90, i32 0, i32 1
  %92 = load i32, ptr %8, align 4
  %93 = add nsw i32 %92, 1
  store i32 %93, ptr %8, align 4
  %94 = sext i32 %92 to i64
  %95 = getelementptr inbounds [256 x i16], ptr %91, i64 0, i64 %94
  store i16 %89, ptr %95, align 2
  br label %76, !llvm.loop !83

96:                                               ; preds = %76
  %97 = load i32, ptr %9, align 4
  %98 = sub i32 %97, 1
  %99 = load i32, ptr %7, align 4
  %100 = shl i32 1, %99
  %101 = icmp uge i32 %98, %100
  br i1 %101, label %102, label %104

102:                                              ; preds = %96
  %103 = call i32 @stbi__err(ptr noundef @.str.6)
  store i32 %103, ptr %3, align 4
  store i32 1, ptr %10, align 4
  br label %180

104:                                              ; preds = %96
  br label %105

105:                                              ; preds = %104, %57
  %106 = load i32, ptr %9, align 4
  %107 = load i32, ptr %7, align 4
  %108 = sub nsw i32 16, %107
  %109 = shl i32 %106, %108
  %110 = load ptr, ptr %4, align 8
  %111 = getelementptr inbounds nuw %struct.stbi__huffman, ptr %110, i32 0, i32 4
  %112 = load i32, ptr %7, align 4
  %113 = sext i32 %112 to i64
  %114 = getelementptr inbounds [18 x i32], ptr %111, i64 0, i64 %113
  store i32 %109, ptr %114, align 4
  %115 = load i32, ptr %9, align 4
  %116 = shl i32 %115, 1
  store i32 %116, ptr %9, align 4
  br label %117

117:                                              ; preds = %105
  %118 = load i32, ptr %7, align 4
  %119 = add nsw i32 %118, 1
  store i32 %119, ptr %7, align 4
  br label %54, !llvm.loop !84

120:                                              ; preds = %54
  %121 = load ptr, ptr %4, align 8
  %122 = getelementptr inbounds nuw %struct.stbi__huffman, ptr %121, i32 0, i32 4
  %123 = load i32, ptr %7, align 4
  %124 = sext i32 %123 to i64
  %125 = getelementptr inbounds [18 x i32], ptr %122, i64 0, i64 %124
  store i32 -1, ptr %125, align 4
  %126 = load ptr, ptr %4, align 8
  %127 = getelementptr inbounds nuw %struct.stbi__huffman, ptr %126, i32 0, i32 0
  %128 = getelementptr inbounds [512 x i8], ptr %127, i64 0, i64 0
  call void @llvm.memset.p0.i64(ptr align 4 %128, i8 -1, i64 512, i1 false)
  store i32 0, ptr %6, align 4
  br label %129

129:                                              ; preds = %176, %120
  %130 = load i32, ptr %6, align 4
  %131 = load i32, ptr %8, align 4
  %132 = icmp slt i32 %130, %131
  br i1 %132, label %133, label %179

133:                                              ; preds = %129
  call void @llvm.lifetime.start.p0(i64 4, ptr %11) #8
  %134 = load ptr, ptr %4, align 8
  %135 = getelementptr inbounds nuw %struct.stbi__huffman, ptr %134, i32 0, i32 3
  %136 = load i32, ptr %6, align 4
  %137 = sext i32 %136 to i64
  %138 = getelementptr inbounds [257 x i8], ptr %135, i64 0, i64 %137
  %139 = load i8, ptr %138, align 1
  %140 = zext i8 %139 to i32
  store i32 %140, ptr %11, align 4
  %141 = load i32, ptr %11, align 4
  %142 = icmp sle i32 %141, 9
  br i1 %142, label %143, label %175

143:                                              ; preds = %133
  call void @llvm.lifetime.start.p0(i64 4, ptr %12) #8
  %144 = load ptr, ptr %4, align 8
  %145 = getelementptr inbounds nuw %struct.stbi__huffman, ptr %144, i32 0, i32 1
  %146 = load i32, ptr %6, align 4
  %147 = sext i32 %146 to i64
  %148 = getelementptr inbounds [256 x i16], ptr %145, i64 0, i64 %147
  %149 = load i16, ptr %148, align 2
  %150 = zext i16 %149 to i32
  %151 = load i32, ptr %11, align 4
  %152 = sub nsw i32 9, %151
  %153 = shl i32 %150, %152
  store i32 %153, ptr %12, align 4
  call void @llvm.lifetime.start.p0(i64 4, ptr %13) #8
  %154 = load i32, ptr %11, align 4
  %155 = sub nsw i32 9, %154
  %156 = shl i32 1, %155
  store i32 %156, ptr %13, align 4
  store i32 0, ptr %7, align 4
  br label %157

157:                                              ; preds = %171, %143
  %158 = load i32, ptr %7, align 4
  %159 = load i32, ptr %13, align 4
  %160 = icmp slt i32 %158, %159
  br i1 %160, label %161, label %174

161:                                              ; preds = %157
  %162 = load i32, ptr %6, align 4
  %163 = trunc i32 %162 to i8
  %164 = load ptr, ptr %4, align 8
  %165 = getelementptr inbounds nuw %struct.stbi__huffman, ptr %164, i32 0, i32 0
  %166 = load i32, ptr %12, align 4
  %167 = load i32, ptr %7, align 4
  %168 = add nsw i32 %166, %167
  %169 = sext i32 %168 to i64
  %170 = getelementptr inbounds [512 x i8], ptr %165, i64 0, i64 %169
  store i8 %163, ptr %170, align 1
  br label %171

171:                                              ; preds = %161
  %172 = load i32, ptr %7, align 4
  %173 = add nsw i32 %172, 1
  store i32 %173, ptr %7, align 4
  br label %157, !llvm.loop !85

174:                                              ; preds = %157
  call void @llvm.lifetime.end.p0(i64 4, ptr %13) #8
  call void @llvm.lifetime.end.p0(i64 4, ptr %12) #8
  br label %175

175:                                              ; preds = %174, %133
  call void @llvm.lifetime.end.p0(i64 4, ptr %11) #8
  br label %176

176:                                              ; preds = %175
  %177 = load i32, ptr %6, align 4
  %178 = add nsw i32 %177, 1
  store i32 %178, ptr %6, align 4
  br label %129, !llvm.loop !86

179:                                              ; preds = %129
  store i32 1, ptr %3, align 4
  store i32 1, ptr %10, align 4
  br label %180

180:                                              ; preds = %179, %102, %38
  call void @llvm.lifetime.end.p0(i64 4, ptr %9) #8
  call void @llvm.lifetime.end.p0(i64 4, ptr %8) #8
  call void @llvm.lifetime.end.p0(i64 4, ptr %7) #8
  call void @llvm.lifetime.end.p0(i64 4, ptr %6) #8
  %181 = load i32, ptr %3, align 4
  ret i32 %181
}