; Function Attrs: nounwind uwtable
define internal fastcc range(i32 0, 2) i32 @stbi__build_huffman(ptr noundef nonnull captures(none) %0, ptr noundef nonnull readonly captures(none) %1) unnamed_addr #0 {
  %3 = getelementptr inbounds nuw i8, ptr %0, i64 1280
  br label %.preheader66

.preheader66:                                     ; preds = %2, %._crit_edge
  %indvars.iv92 = phi i64 [ 0, %2 ], [ %indvars.iv.next93, %._crit_edge ]
  %.06073 = phi i32 [ 0, %2 ], [ %.161.lcssa, %._crit_edge ]
  %4 = getelementptr inbounds nuw i32, ptr %1, i64 %indvars.iv92
  %5 = load i32, ptr %4, align 4
  %6 = icmp sgt i32 %5, 0
  br i1 %6, label %.lr.ph, label %._crit_edge

.lr.ph:                                           ; preds = %.preheader66
  %7 = trunc i64 %indvars.iv92 to i8
  %8 = add nuw nsw i8 %7, 1
  %9 = sext i32 %.06073 to i64
  %smax = tail call i32 @llvm.smax.i32(i32 %.06073, i32 256)
  %10 = sub i32 %smax, %.06073
  br label %11

11:                                               ; preds = %.lr.ph, %13
  %indvars.iv = phi i64 [ %9, %.lr.ph ], [ %indvars.iv.next, %13 ]
  %.05572 = phi i32 [ 0, %.lr.ph ], [ %14, %13 ]
  %12 = getelementptr inbounds [257 x i8], ptr %3, i64 0, i64 %indvars.iv
  store i8 %8, ptr %12, align 1
  %exitcond = icmp eq i32 %.05572, %10
  br i1 %exitcond, label %.loopexit65.sink.split, label %13

13:                                               ; preds = %11
  %indvars.iv.next = add nsw i64 %indvars.iv, 1
  %14 = add nuw nsw i32 %.05572, 1
  %15 = load i32, ptr %4, align 4
  %16 = icmp slt i32 %14, %15
  br i1 %16, label %11, label %._crit_edge.loopexit, !llvm.loop !70

._crit_edge.loopexit:                             ; preds = %13
  %17 = trunc nsw i64 %indvars.iv.next to i32
  br label %._crit_edge

._crit_edge:                                      ; preds = %._crit_edge.loopexit, %.preheader66
  %.161.lcssa = phi i32 [ %.06073, %.preheader66 ], [ %17, %._crit_edge.loopexit ]
  %indvars.iv.next93 = add nuw nsw i64 %indvars.iv92, 1
  %exitcond95.not = icmp eq i64 %indvars.iv.next93, 16
  br i1 %exitcond95.not, label %18, label %.preheader66, !llvm.loop !71

18:                                               ; preds = %._crit_edge
  %19 = sext i32 %.161.lcssa to i64
  %20 = getelementptr inbounds [257 x i8], ptr %3, i64 0, i64 %19
  store i8 0, ptr %20, align 1
  %21 = getelementptr inbounds nuw i8, ptr %0, i64 1612
  %22 = getelementptr inbounds nuw i8, ptr %0, i64 512
  %23 = getelementptr inbounds nuw i8, ptr %0, i64 1540
  br label %24

24:                                               ; preds = %18, %41
  %indvars.iv99 = phi i64 [ 1, %18 ], [ %indvars.iv.next100, %41 ]
  %.05782 = phi i32 [ 0, %18 ], [ %46, %41 ]
  %.26281 = phi i32 [ 0, %18 ], [ %.3, %41 ]
  %25 = sub i32 %.26281, %.05782
  %26 = getelementptr inbounds nuw [17 x i32], ptr %21, i64 0, i64 %indvars.iv99
  store i32 %25, ptr %26, align 4
  %27 = sext i32 %.26281 to i64
  %28 = getelementptr inbounds [257 x i8], ptr %3, i64 0, i64 %27
  %29 = load i8, ptr %28, align 1
  %30 = zext i8 %29 to i64
  %31 = icmp eq i64 %indvars.iv99, %30
  br i1 %31, label %.lr.ph77, label %41

.lr.ph77:                                         ; preds = %24, %.lr.ph77
  %indvars.iv96 = phi i64 [ %indvars.iv.next97, %.lr.ph77 ], [ %27, %24 ]
  %.25976 = phi i32 [ %32, %.lr.ph77 ], [ %.05782, %24 ]
  %32 = add i32 %.25976, 1
  %33 = trunc i32 %.25976 to i16
  %indvars.iv.next97 = add nsw i64 %indvars.iv96, 1
  %34 = getelementptr inbounds [256 x i16], ptr %22, i64 0, i64 %indvars.iv96
  store i16 %33, ptr %34, align 2
  %35 = getelementptr inbounds [257 x i8], ptr %3, i64 0, i64 %indvars.iv.next97
  %36 = load i8, ptr %35, align 1
  %37 = zext i8 %36 to i64
  %38 = icmp eq i64 %indvars.iv99, %37
  br i1 %38, label %.lr.ph77, label %._crit_edge78, !llvm.loop !72

._crit_edge78:                                    ; preds = %.lr.ph77
  %39 = trunc nsw i64 %indvars.iv.next97 to i32
  %40 = trunc nuw nsw i64 %indvars.iv99 to i32
  %.highbits = lshr i32 %.25976, %40
  %.not = icmp eq i32 %.highbits, 0
  br i1 %.not, label %41, label %.loopexit65.sink.split

41:                                               ; preds = %._crit_edge78, %24
  %.3 = phi i32 [ %39, %._crit_edge78 ], [ %.26281, %24 ]
  %.158 = phi i32 [ %32, %._crit_edge78 ], [ %.05782, %24 ]
  %42 = trunc i64 %indvars.iv99 to i32
  %43 = sub i32 16, %42
  %44 = shl i32 %.158, %43
  %45 = getelementptr inbounds nuw [18 x i32], ptr %23, i64 0, i64 %indvars.iv99
  store i32 %44, ptr %45, align 4
  %46 = shl i32 %.158, 1
  %indvars.iv.next100 = add nuw nsw i64 %indvars.iv99, 1
  %exitcond102.not = icmp eq i64 %indvars.iv.next100, 17
  br i1 %exitcond102.not, label %47, label %24, !llvm.loop !73

47:                                               ; preds = %41
  %48 = getelementptr inbounds nuw i8, ptr %0, i64 1608
  store i32 -1, ptr %48, align 4
  tail call void @llvm.memset.p0.i64(ptr noundef nonnull align 4 dereferenceable(512) %0, i8 -1, i64 512, i1 false)
  %49 = icmp sgt i32 %.3, 0
  br i1 %49, label %.lr.ph87, label %.loopexit65

.lr.ph87:                                         ; preds = %47
  %wide.trip.count = zext nneg i32 %.3 to i64
  br label %50

50:                                               ; preds = %.lr.ph87, %.loopexit
  %indvars.iv106 = phi i64 [ 0, %.lr.ph87 ], [ %indvars.iv.next107, %.loopexit ]
  %51 = getelementptr inbounds nuw [257 x i8], ptr %3, i64 0, i64 %indvars.iv106
  %52 = load i8, ptr %51, align 1
  %53 = icmp ult i8 %52, 10
  br i1 %53, label %54, label %.loopexit

54:                                               ; preds = %50
  %55 = getelementptr inbounds nuw [256 x i16], ptr %22, i64 0, i64 %indvars.iv106
  %56 = load i16, ptr %55, align 2
  %57 = zext i16 %56 to i32
  %narrow = sub nuw nsw i8 9, %52
  %58 = zext nneg i8 %narrow to i32
  %59 = shl nuw nsw i32 %57, %58
  %60 = trunc i64 %indvars.iv106 to i8
  %61 = zext nneg i32 %59 to i64
  br label %62

62:                                               ; preds = %54, %62
  %indvars.iv103 = phi i64 [ 0, %54 ], [ %indvars.iv.next104, %62 ]
  %63 = add nuw nsw i64 %indvars.iv103, %61
  %64 = getelementptr inbounds nuw [512 x i8], ptr %0, i64 0, i64 %63
  store i8 %60, ptr %64, align 1
  %indvars.iv.next104 = add nuw nsw i64 %indvars.iv103, 1
  %65 = trunc nuw nsw i64 %indvars.iv.next104 to i32
  %.2.highbits = lshr i32 %65, %58
  %66 = icmp eq i32 %.2.highbits, 0
  br i1 %66, label %62, label %.loopexit, !llvm.loop !74

.loopexit:                                        ; preds = %62, %50
  %indvars.iv.next107 = add nuw nsw i64 %indvars.iv106, 1
  %exitcond110.not = icmp eq i64 %indvars.iv.next107, %wide.trip.count
  br i1 %exitcond110.not, label %.loopexit65, label %50, !llvm.loop !75

.loopexit65.sink.split:                           ; preds = %11, %._crit_edge78
  %67 = tail call zeroext i1 (ptr, ...) @SDL_SetError_REAL(ptr noundef nonnull @.str.2, ptr noundef nonnull @.str.6) #11
  br label %.loopexit65

.loopexit65:                                      ; preds = %.loopexit, %.loopexit65.sink.split, %47
  %.0 = phi i32 [ 1, %47 ], [ 0, %.loopexit65.sink.split ], [ 1, %.loopexit ]
  ret i32 %.0
}